; Function Attrs: mustprogress nofree norecurse nosync nounwind willreturn memory(read, inaccessiblemem: none) uwtable
define dso_local noundef zeroext i1 @_ZN4Luau14subsumesStrictEPNS_5ScopeES1_(ptr noundef readnone %0, ptr noundef readonly %1) local_unnamed_addr #8 {
  br label %3

3:                                                ; preds = %4, %2
  %.0 = phi ptr [ %1, %2 ], [ %5, %4 ]
  %.not.not.not.not.not.not = icmp ne ptr %.0, null
  br i1 %.not.not.not.not.not.not, label %4, label %7

4:                                                ; preds = %3
  %5 = load ptr, ptr %.0, align 8, !tbaa !94
  %6 = icmp eq ptr %5, %0
  br i1 %6, label %7, label %3, !llvm.loop !164

7:                                                ; preds = %3, %4
  ret i1 %.not.not.not.not.not.not
}